target datalayout = "e-m:e-p270:32:32-p271:32:32-p272:64:64-i64:64-i128:128-f80:128-n8:16:32:64-S128"
target triple = "x86_64-pc-linux-gnu"

%struct.SN_env = type { ptr, i32, i32, i32, i32, i32, ptr, ptr }

; Function Attrs: nounwind uwtable
define internal i32 @r_mark_yA(ptr noundef %0) #0 {
  %2 = alloca i32, align 4
  %3 = alloca ptr, align 8
  %4 = alloca i32, align 4
  %5 = alloca i32, align 4
  %6 = alloca i32, align 4
  store ptr %0, ptr %3, align 8
  call void @llvm.lifetime.start.p0(i64 4, ptr %4) #3
  %7 = load ptr, ptr %3, align 8
  %8 = call i32 @r_check_vowel_harmony(ptr noundef %7)
  store i32 %8, ptr %4, align 4
  %9 = load i32, ptr %4, align 4
  %10 = icmp sle i32 %9, 0
  br i1 %10, label %11, label %13

11:                                               ; preds = %1
  %12 = load i32, ptr %4, align 4
  store i32 %12, ptr %2, align 4
  store i32 1, ptr %5, align 4
  br label %14

13:                                               ; preds = %1
  store i32 0, ptr %5, align 4
  br label %14

14:                                               ; preds = %13, %11
  call void @llvm.lifetime.end.p0(i64 4, ptr %4) #3
  %15 = load i32, ptr %5, align 4
  switch i32 %15, label %69 [
    i32 0, label %16
    i32 1, label %67
  ]

16:                                               ; preds = %14
  %17 = load ptr, ptr %3, align 8
  %18 = getelementptr inbounds nuw %struct.SN_env, ptr %17, i32 0, i32 1
  %19 = load i32, ptr %18, align 8
  %20 = load ptr, ptr %3, align 8
  %21 = getelementptr inbounds nuw %struct.SN_env, ptr %20, i32 0, i32 3
  %22 = load i32, ptr %21, align 8
  %23 = icmp sle i32 %19, %22
  br i1 %23, label %50, label %24

24:                                               ; preds = %16
  %25 = load ptr, ptr %3, align 8
  %26 = getelementptr inbounds nuw %struct.SN_env, ptr %25, i32 0, i32 0
  %27 = load ptr, ptr %26, align 8
  %28 = load ptr, ptr %3, align 8
  %29 = getelementptr inbounds nuw %struct.SN_env, ptr %28, i32 0, i32 1
  %30 = load i32, ptr %29, align 8
  %31 = sub i32 %30, 1
  %32 = sext i32 %31 to i64
  %33 = getelementptr inbounds i8, ptr %27, i64 %32
  %34 = load i8, ptr %33, align 1
  %35 = zext i8 %34 to i32
  %36 = icmp ne i32 %35, 97
  br i1 %36, label %37, label %51

37:                                               ; preds = %24
  %38 = load ptr, ptr %3, align 8
  %39 = getelementptr inbounds nuw %struct.SN_env, ptr %38, i32 0, i32 0
  %40 = load ptr, ptr %39, align 8
  %41 = load ptr, ptr %3, align 8
  %42 = getelementptr inbounds nuw %struct.SN_env, ptr %41, i32 0, i32 1
  %43 = load i32, ptr %42, align 8
  %44 = sub i32 %43, 1
  %45 = sext i32 %44 to i64
  %46 = getelementptr inbounds i8, ptr %40, i64 %45
  %47 = load i8, ptr %46, align 1
  %48 = zext i8 %47 to i32
  %49 = icmp ne i32 %48, 101
  br i1 %49, label %50, label %51

50:                                               ; preds = %37, %16
  store i32 0, ptr %2, align 4
  br label %67

51:                                               ; preds = %37, %24
  %52 = load ptr, ptr %3, align 8
  %53 = call i32 @find_among_b(ptr noundef %52, ptr noundef @a_4, i32 noundef 2)
  %54 = icmp ne i32 %53, 0
  br i1 %54, label %56, label %55

55:                                               ; preds = %51
  store i32 0, ptr %2, align 4
  br label %67

56:                                               ; preds = %51
  call void @llvm.lifetime.start.p0(i64 4, ptr %6) #3
  %57 = load ptr, ptr %3, align 8
  %58 = call i32 @r_mark_suffix_with_optional_y_consonant(ptr noundef %57)
  store i32 %58, ptr %6, align 4
  %59 = load i32, ptr %6, align 4
  %60 = icmp sle i32 %59, 0
  br i1 %60, label %61, label %63

61:                                               ; preds = %56
  %62 = load i32, ptr %6, align 4
  store i32 %62, ptr %2, align 4
  store i32 1, ptr %5, align 4
  br label %64

63:                                               ; preds = %56
  store i32 0, ptr %5, align 4
  br label %64

64:                                               ; preds = %63, %61
  call void @llvm.lifetime.end.p0(i64 4, ptr %6) #3
  %65 = load i32, ptr %5, align 4
  switch i32 %65, label %69 [
    i32 0, label %66
    i32 1, label %67
  ]

66:                                               ; preds = %64
  store i32 1, ptr %2, align 4
  br label %67

67:                                               ; preds = %66, %64, %55, %50, %14
  %68 = load i32, ptr %2, align 4
  ret i32 %68

69:                                               ; preds = %64, %14
  unreachable
}