; Function Attrs: nounwind uwtable
define internal fastcc range(i32 0, 2) i32 @r_mark_yA(ptr noundef %0) unnamed_addr #0 {
  %2 = tail call fastcc i32 @r_check_vowel_harmony(ptr noundef %0)
  %.not.not.not = icmp eq i32 %2, 0
  br i1 %.not.not.not, label %18, label %3

3:                                                ; preds = %1
  %4 = getelementptr inbounds nuw i8, ptr %0, i64 8
  %5 = load i32, ptr %4, align 8
  %6 = getelementptr inbounds nuw i8, ptr %0, i64 16
  %7 = load i32, ptr %6, align 8
  %.not = icmp sgt i32 %5, %7
  br i1 %.not, label %8, label %18

8:                                                ; preds = %3
  %9 = load ptr, ptr %0, align 8
  %10 = sext i32 %5 to i64
  %11 = getelementptr i8, ptr %9, i64 %10
  %12 = getelementptr i8, ptr %11, i64 -1
  %13 = load i8, ptr %12, align 1
  switch i8 %13, label %18 [
    i8 97, label %14
    i8 101, label %14
  ]

14:                                               ; preds = %8, %8
  %15 = tail call i32 @find_among_b(ptr noundef nonnull %0, ptr noundef nonnull @a_4, i32 noundef 2) #3
  %.not21 = icmp eq i32 %15, 0
  br i1 %.not21, label %18, label %16

16:                                               ; preds = %14
  %17 = tail call fastcc i32 @r_mark_suffix_with_optional_y_consonant(ptr noundef nonnull %0)
  br label %18

18:                                               ; preds = %16, %1, %14, %3, %8
  %.1 = phi i32 [ 0, %1 ], [ 0, %8 ], [ 0, %3 ], [ 0, %14 ], [ %17, %16 ]
  ret i32 %.1
}